; Function Attrs: nounwind uwtable
define ptr @l_Lake_BuildStore_collectModuleFacetArray___rarg___boxed(ptr noundef %0, ptr noundef %1, ptr readnone captures(none) %2) #0 {
  %4 = load ptr, ptr @l_Lake_BuildStore_collectModuleFacetArray___rarg___closed__1, align 8, !tbaa !9
  %5 = tail call ptr @l_Lean_RBNode_forIn_visit___at_Lake_BuildStore_collectModuleFacetArray___spec__1___rarg(ptr noundef %1, ptr noundef %0, ptr noundef %4)
  %6 = getelementptr inbounds nuw i8, ptr %5, i64 8
  %7 = load ptr, ptr %6, align 8, !tbaa !9
  %8 = ptrtoint ptr %7 to i64
  %9 = and i64 %8, 1
  %.not.i5 = icmp eq i64 %9, 0
  br i1 %.not.i5, label %10, label %lean_inc.exit.i

10:                                               ; preds = %3
  %.val.i.i = load i32, ptr %7, align 4, !tbaa !4
  %11 = icmp sgt i32 %.val.i.i, 0
  br i1 %11, label %12, label %14, !prof !11

12:                                               ; preds = %10
  %13 = add nuw i32 %.val.i.i, 1
  store i32 %13, ptr %7, align 4, !tbaa !4
  br label %lean_inc.exit.i

14:                                               ; preds = %10
  %.not.i7.i = icmp eq i32 %.val.i.i, 0
  br i1 %.not.i7.i, label %lean_inc.exit.i, label %15

15:                                               ; preds = %14
  tail call void @lean_inc_ref_cold(ptr noundef nonnull %7) #3
  br label %lean_inc.exit.i

lean_inc.exit.i:                                  ; preds = %15, %14, %12, %3
  %16 = ptrtoint ptr %5 to i64
  %17 = and i64 %16, 1
  %.not8.i = icmp eq i64 %17, 0
  br i1 %.not8.i, label %18, label %l_Lake_BuildStore_collectModuleFacetArray___rarg.exit

18:                                               ; preds = %lean_inc.exit.i
  %19 = load i32, ptr %5, align 4, !tbaa !4
  %20 = icmp sgt i32 %19, 1
  br i1 %20, label %21, label %23, !prof !11

21:                                               ; preds = %18
  %22 = add nsw i32 %19, -1
  store i32 %22, ptr %5, align 4, !tbaa !4
  br label %l_Lake_BuildStore_collectModuleFacetArray___rarg.exit

23:                                               ; preds = %18
  %.not.i.i = icmp eq i32 %19, 0
  br i1 %.not.i.i, label %l_Lake_BuildStore_collectModuleFacetArray___rarg.exit, label %24

24:                                               ; preds = %23
  tail call void @lean_dec_ref_cold(ptr noundef nonnull %5) #3
  br label %l_Lake_BuildStore_collectModuleFacetArray___rarg.exit

l_Lake_BuildStore_collectModuleFacetArray___rarg.exit: ; preds = %lean_inc.exit.i, %21, %23, %24
  %25 = ptrtoint ptr %1 to i64
  %26 = and i64 %25, 1
  %.not = icmp eq i64 %26, 0
  br i1 %.not, label %27, label %lean_dec.exit

27:                                               ; preds = %l_Lake_BuildStore_collectModuleFacetArray___rarg.exit
  %28 = load i32, ptr %1, align 4, !tbaa !4
  %29 = icmp sgt i32 %28, 1
  br i1 %29, label %30, label %32, !prof !11

30:                                               ; preds = %27
  %31 = add nsw i32 %28, -1
  store i32 %31, ptr %1, align 4, !tbaa !4
  br label %lean_dec.exit

32:                                               ; preds = %27
  %.not.i = icmp eq i32 %28, 0
  br i1 %.not.i, label %lean_dec.exit, label %33

33:                                               ; preds = %32
  tail call void @lean_dec_ref_cold(ptr noundef nonnull %1) #3
  br label %lean_dec.exit

lean_dec.exit:                                    ; preds = %33, %32, %30, %l_Lake_BuildStore_collectModuleFacetArray___rarg.exit
  ret ptr %7
}